target datalayout = "e-m:e-p270:32:32-p271:32:32-p272:64:64-i64:64-i128:128-f80:128-n8:16:32:64-S128"
target triple = "x86_64-unknown-linux-gnu"

%struct.QemuMutex = type { %union.pthread_mutex_t, i8 }
%union.pthread_mutex_t = type { %struct.__pthread_mutex_s }
%struct.__pthread_mutex_s = type { i32, i32, i32, i32, i32, i16, i16, %struct.__pthread_internal_list }
%struct.__pthread_internal_list = type { ptr, ptr }
%struct.BlockDriverState = type { i32, i8, i8, i8, i8, i8, ptr, ptr, ptr, %struct.anon.4, i8, [4096 x i8], [4096 x i8], [4096 x i8], [16 x i8], ptr, [4096 x i8], %struct.BlockLimits, i32, i32, i32, i32, [32 x i8], %union.anon, %union.anon.5, %union.anon.6, i32, [16 x %struct.anon.7], ptr, %struct.anon.8, ptr, ptr, %struct.anon.9, ptr, ptr, i32, ptr, i64, i64, %struct.QemuMutex, %struct.anon.10, %struct.Stat64, i32, i32, i32, i32, i32, i32, %struct.QemuMutex, %struct.anon.11, %struct.CoQueue, i8, i32, i8, %struct.CoMutex, ptr, ptr }
%struct.anon.4 = type { ptr }
%struct.BlockLimits = type { i32, i64, i32, i64, i32, i32, i32, i64, i32, i64, i64, i32, i8, i32, i32, i32, i32, i32, i32, i32 }
%union.anon = type { %struct.QTailQLink }
%struct.QTailQLink = type { ptr, ptr }
%union.anon.5 = type { %struct.QTailQLink }
%union.anon.6 = type { %struct.QTailQLink }
%struct.anon.7 = type { ptr }
%struct.anon.8 = type { ptr }
%struct.anon.9 = type { ptr }
%struct.anon.10 = type { ptr }
%struct.Stat64 = type { i64 }
%struct.anon.11 = type { ptr }
%struct.CoQueue = type { %struct.anon.12 }
%struct.anon.12 = type { ptr, ptr }
%struct.CoMutex = type { i32, ptr, %struct.anon.13, %struct.anon.13, i32, i32, ptr }
%struct.anon.13 = type { ptr }
%struct.BdrvChild = type { ptr, ptr, ptr, i32, ptr, i64, i64, i8, i8, %struct.anon.14, %struct.anon.15 }
%struct.anon.14 = type { ptr, ptr }
%struct.anon.15 = type { ptr, ptr }

; Function Attrs: nounwind sspstrong uwtable
define internal void @bdrv_commit_top_refresh_filename(ptr noundef %bs) #0 {
entry:
  %bs.addr = alloca ptr, align 8
  store ptr %bs, ptr %bs.addr, align 8
  %0 = load ptr, ptr %bs.addr, align 8
  %exact_filename = getelementptr inbounds %struct.BlockDriverState, ptr %0, i32 0, i32 16
  %arraydecay = getelementptr inbounds [4096 x i8], ptr %exact_filename, i64 0, i64 0
  %1 = load ptr, ptr %bs.addr, align 8
  %backing = getelementptr inbounds %struct.BlockDriverState, ptr %1, i32 0, i32 30
  %2 = load ptr, ptr %backing, align 8
  %bs1 = getelementptr inbounds %struct.BdrvChild, ptr %2, i32 0, i32 0
  %3 = load ptr, ptr %bs1, align 8
  %filename = getelementptr inbounds %struct.BlockDriverState, ptr %3, i32 0, i32 11
  %arraydecay2 = getelementptr inbounds [4096 x i8], ptr %filename, i64 0, i64 0
  call void @pstrcpy(ptr noundef %arraydecay, i32 noundef 4096, ptr noundef %arraydecay2)
  ret void
}