; Function Attrs: nounwind sspstrong uwtable
define internal void @bdrv_commit_top_refresh_filename(ptr noundef %bs) #0 {
entry:
  %exact_filename = getelementptr inbounds nuw i8, ptr %bs, i64 12368
  %backing = getelementptr inbounds nuw i8, ptr %bs, i64 16832
  %0 = load ptr, ptr %backing, align 8
  %1 = load ptr, ptr %0, align 8
  %filename = getelementptr inbounds nuw i8, ptr %1, i64 49
  tail call void @pstrcpy(ptr noundef nonnull %exact_filename, i32 noundef 4096, ptr noundef nonnull %filename) #6
  ret void
}